target datalayout = "e-m:e-p270:32:32-p271:32:32-p272:64:64-i64:64-i128:128-f80:128-n8:16:32:64-S128"
target triple = "x86_64-pc-linux-gnu"

%"class.cv::_InputOutputArray" = type { %"class.cv::_OutputArray" }
%"class.cv::_OutputArray" = type { %"class.cv::_InputArray" }
%"class.cv::_InputArray" = type { i32, ptr, %"class.cv::Size_" }
%"class.cv::Size_" = type { i32, i32 }
%"class.cv::Point_" = type { i32, i32 }
%"class.cv::Scalar_" = type { %"class.cv::Vec" }
%"class.cv::Vec" = type { %"class.cv::Matx" }
%"class.cv::Matx" = type { [4 x double] }

; Function Attrs: inlinehint mustprogress nounwind uwtable
define linkonce_odr hidden void @_ZN2cv5Size_IiEC2Ev(ptr noundef nonnull align 4 dereferenceable(8) %0) unnamed_addr #10 comdat align 2 {
  %2 = alloca ptr, align 8
  store ptr %0, ptr %2, align 8, !tbaa !159
  %3 = load ptr, ptr %2, align 8
  %4 = getelementptr inbounds nuw %"class.cv::Size_", ptr %3, i32 0, i32 0
  store i32 0, ptr %4, align 4, !tbaa !161
  %5 = getelementptr inbounds nuw %"class.cv::Size_", ptr %3, i32 0, i32 1
  store i32 0, ptr %5, align 4, !tbaa !162
  ret void
}

; Function Attrs: inlinehint mustprogress nounwind uwtable
define linkonce_odr hidden void @_ZN2cv4MatxIdLi4ELi1EEC2EPKd(ptr noundef nonnull align 8 dereferenceable(32) %0, ptr noundef %1) unnamed_addr #10 comdat align 2 {
  %3 = alloca ptr, align 8
  %4 = alloca ptr, align 8
  %5 = alloca i32, align 4
  store ptr %0, ptr %3, align 8, !tbaa !215
  store ptr %1, ptr %4, align 8, !tbaa !217
  %6 = load ptr, ptr %3, align 8
  call void @llvm.lifetime.start.p0(i64 4, ptr %5) #3
  store i32 0, ptr %5, align 4, !tbaa !16
  br label %7

7:                                                ; preds = %21, %2
  %8 = load i32, ptr %5, align 4, !tbaa !16
  %9 = icmp slt i32 %8, 4
  br i1 %9, label %11, label %10

10:                                               ; preds = %7
  call void @llvm.lifetime.end.p0(i64 4, ptr %5) #3
  br label %24

11:                                               ; preds = %7
  %12 = load ptr, ptr %4, align 8, !tbaa !217
  %13 = load i32, ptr %5, align 4, !tbaa !16
  %14 = sext i32 %13 to i64
  %15 = getelementptr inbounds double, ptr %12, i64 %14
  %16 = load double, ptr %15, align 8, !tbaa !31
  %17 = getelementptr inbounds nuw %"class.cv::Matx", ptr %6, i32 0, i32 0
  %18 = load i32, ptr %5, align 4, !tbaa !16
  %19 = sext i32 %18 to i64
  %20 = getelementptr inbounds [4 x double], ptr %17, i64 0, i64 %19
  store double %16, ptr %20, align 8, !tbaa !31
  br label %21

21:                                               ; preds = %11
  %22 = load i32, ptr %5, align 4, !tbaa !16
  %23 = add nsw i32 %22, 1
  store i32 %23, ptr %5, align 4, !tbaa !16
  br label %7, !llvm.loop !219

24:                                               ; preds = %10
  ret void
}

; Function Attrs: inlinehint mustprogress uwtable
define linkonce_odr hidden void @_ZN2cv11_InputArrayC2Ev(ptr noundef nonnull align 8 dereferenceable(24) %0) unnamed_addr #8 comdat align 2 {
  %2 = alloca ptr, align 8
  store ptr %0, ptr %2, align 8, !tbaa !87
  %3 = load ptr, ptr %2, align 8
  %4 = getelementptr inbounds nuw %"class.cv::_InputArray", ptr %3, i32 0, i32 2
  call void @_ZN2cv5Size_IiEC2Ev(ptr noundef nonnull align 4 dereferenceable(8) %4)
  call void @_ZN2cv11_InputArray4initEiPKv(ptr noundef nonnull align 8 dereferenceable(24) %3, i32 noundef 0, ptr noundef null)
  ret void
}

; Function Attrs: inlinehint mustprogress uwtable
define linkonce_odr hidden void @_ZN2cv3VecIdLi4EEC2ERKS1_(ptr noundef nonnull align 8 dereferenceable(32) %0, ptr noundef nonnull align 8 dereferenceable(32) %1) unnamed_addr #8 comdat align 2 {
  %3 = alloca ptr, align 8
  %4 = alloca ptr, align 8
  store ptr %0, ptr %3, align 8, !tbaa !213
  store ptr %1, ptr %4, align 8, !tbaa !213
  %5 = load ptr, ptr %3, align 8
  %6 = load ptr, ptr %4, align 8, !tbaa !213
  %7 = getelementptr inbounds nuw %"class.cv::Matx", ptr %6, i32 0, i32 0
  %8 = getelementptr inbounds [4 x double], ptr %7, i64 0, i64 0
  call void @_ZN2cv4MatxIdLi4ELi1EEC2EPKd(ptr noundef nonnull align 8 dereferenceable(32) %5, ptr noundef %8)
  ret void
}

; Function Attrs: inlinehint mustprogress nounwind uwtable
define linkonce_odr hidden void @_ZN2cv11_InputArray4initEiPKv(ptr noundef nonnull align 8 dereferenceable(24) %0, i32 noundef %1, ptr noundef %2) #10 comdat align 2 {
  %4 = alloca ptr, align 8
  %5 = alloca i32, align 4
  %6 = alloca ptr, align 8
  store ptr %0, ptr %4, align 8, !tbaa !87
  store i32 %1, ptr %5, align 4, !tbaa !16
  store ptr %2, ptr %6, align 8, !tbaa !127
  %7 = load ptr, ptr %4, align 8
  %8 = load i32, ptr %5, align 4, !tbaa !16
  %9 = getelementptr inbounds nuw %"class.cv::_InputArray", ptr %7, i32 0, i32 0
  store i32 %8, ptr %9, align 8, !tbaa !155
  %10 = load ptr, ptr %6, align 8, !tbaa !127
  %11 = getelementptr inbounds nuw %"class.cv::_InputArray", ptr %7, i32 0, i32 1
  store ptr %10, ptr %11, align 8, !tbaa !158
  ret void
}

; Function Attrs: inlinehint mustprogress uwtable
define linkonce_odr hidden void @_ZN2cv12_OutputArrayC2Ev(ptr noundef nonnull align 8 dereferenceable(24) %0) unnamed_addr #8 comdat align 2 personality ptr @__gxx_personality_v0 {
  %2 = alloca ptr, align 8
  %3 = alloca ptr, align 8
  %4 = alloca i32, align 4
  store ptr %0, ptr %2, align 8, !tbaa !89
  %5 = load ptr, ptr %2, align 8
  call void @_ZN2cv11_InputArrayC2Ev(ptr noundef nonnull align 8 dereferenceable(24) %5)
  invoke void @_ZN2cv11_InputArray4initEiPKv(ptr noundef nonnull align 8 dereferenceable(24) %5, i32 noundef 33554432, ptr noundef null)
          to label %6 unwind label %7

6:                                                ; preds = %1
  ret void

7:                                                ; preds = %1
  %8 = landingpad { ptr, i32 }
          cleanup
  %9 = extractvalue { ptr, i32 } %8, 0
  store ptr %9, ptr %3, align 8
  %10 = extractvalue { ptr, i32 } %8, 1
  store i32 %10, ptr %4, align 4
  call void @_ZN2cv11_InputArrayD2Ev(ptr noundef nonnull align 8 dereferenceable(24) %5) #3
  br label %11

11:                                               ; preds = %7
  %12 = load ptr, ptr %3, align 8
  %13 = load i32, ptr %4, align 4
  %14 = insertvalue { ptr, i32 } poison, ptr %12, 0
  %15 = insertvalue { ptr, i32 } %14, i32 %13, 1
  resume { ptr, i32 } %15
}

; Function Attrs: inlinehint mustprogress nounwind uwtable
define linkonce_odr hidden void @_ZN2cv11_InputArrayD2Ev(ptr noundef nonnull align 8 dereferenceable(24) %0) unnamed_addr #10 comdat align 2 {
  %2 = alloca ptr, align 8
  store ptr %0, ptr %2, align 8, !tbaa !87
  ret void
}

; Function Attrs: inlinehint mustprogress uwtable
define linkonce_odr hidden void @_ZN2cv7Scalar_IdEC2ERKS1_(ptr noundef nonnull align 8 dereferenceable(32) %0, ptr noundef nonnull align 8 dereferenceable(32) %1) unnamed_addr #8 comdat align 2 {
  %3 = alloca ptr, align 8
  %4 = alloca ptr, align 8
  store ptr %0, ptr %3, align 8, !tbaa !9
  store ptr %1, ptr %4, align 8, !tbaa !9
  %5 = load ptr, ptr %3, align 8
  %6 = load ptr, ptr %4, align 8, !tbaa !9
  call void @_ZN2cv3VecIdLi4EEC2ERKS1_(ptr noundef nonnull align 8 dereferenceable(32) %5, ptr noundef nonnull align 8 dereferenceable(32) %6)
  ret void
}

; Function Attrs: inlinehint mustprogress nounwind uwtable
define linkonce_odr hidden void @_ZN2cv6Point_IiEC2Eii(ptr noundef nonnull align 4 dereferenceable(8) %0, i32 noundef %1, i32 noundef %2) unnamed_addr #10 comdat align 2 {
  %4 = alloca ptr, align 8
  %5 = alloca i32, align 4
  %6 = alloca i32, align 4
  store ptr %0, ptr %4, align 8, !tbaa !26
  store i32 %1, ptr %5, align 4, !tbaa !16
  store i32 %2, ptr %6, align 4, !tbaa !16
  %7 = load ptr, ptr %4, align 8
  %8 = getelementptr inbounds nuw %"class.cv::Point_", ptr %7, i32 0, i32 0
  %9 = load i32, ptr %5, align 4, !tbaa !16
  store i32 %9, ptr %8, align 4, !tbaa !28
  %10 = getelementptr inbounds nuw %"class.cv::Point_", ptr %7, i32 0, i32 1
  %11 = load i32, ptr %6, align 4, !tbaa !16
  store i32 %11, ptr %10, align 4, !tbaa !30
  ret void
}

; Function Attrs: inlinehint mustprogress uwtable
define linkonce_odr hidden void @_ZN2cv17_InputOutputArrayC2ERNS_3MatE(ptr noundef nonnull align 8 dereferenceable(24) %0, ptr noundef nonnull align 8 dereferenceable(96) %1) unnamed_addr #8 comdat align 2 personality ptr @__gxx_personality_v0 {
  %3 = alloca ptr, align 8
  %4 = alloca ptr, align 8
  %5 = alloca ptr, align 8
  %6 = alloca i32, align 4
  store ptr %0, ptr %3, align 8, !tbaa !24
  store ptr %1, ptr %4, align 8, !tbaa !4
  %7 = load ptr, ptr %3, align 8
  call void @_ZN2cv12_OutputArrayC2Ev(ptr noundef nonnull align 8 dereferenceable(24) %7)
  %8 = load ptr, ptr %4, align 8, !tbaa !4
  invoke void @_ZN2cv11_InputArray4initEiPKv(ptr noundef nonnull align 8 dereferenceable(24) %7, i32 noundef 50397184, ptr noundef %8)
          to label %9 unwind label %10

9:                                                ; preds = %2
  ret void

10:                                               ; preds = %2
  %11 = landingpad { ptr, i32 }
          cleanup
  %12 = extractvalue { ptr, i32 } %11, 0
  store ptr %12, ptr %5, align 8
  %13 = extractvalue { ptr, i32 } %11, 1
  store i32 %13, ptr %6, align 4
  call void @_ZN2cv11_InputArrayD2Ev(ptr noundef nonnull align 8 dereferenceable(24) %7) #3
  br label %14

14:                                               ; preds = %10
  %15 = load ptr, ptr %5, align 8
  %16 = load i32, ptr %6, align 4
  %17 = insertvalue { ptr, i32 } poison, ptr %15, 0
  %18 = insertvalue { ptr, i32 } %17, i32 %16, 1
  resume { ptr, i32 } %18
}

; Function Attrs: mustprogress uwtable
define hidden void @_Z8drawTextN2cv3MatENSt7__cxx1112basic_stringIcSt11char_traitsIcESaIcEEENS_7Scalar_IdEE(ptr noundef %0, ptr noundef %1, ptr noundef %2) #7 personality ptr @__gxx_personality_v0 {
  %4 = alloca ptr, align 8
  %5 = alloca ptr, align 8
  %6 = alloca ptr, align 8
  %7 = alloca %"class.cv::_InputOutputArray", align 8
  %8 = alloca %"class.cv::Point_", align 4
  %9 = alloca ptr, align 8
  %10 = alloca i32, align 4
  %11 = alloca %"class.cv::Scalar_", align 8
  store ptr %0, ptr %4, align 8, !tbaa !4
  store ptr %1, ptr %5, align 8, !tbaa !18
  store ptr %2, ptr %6, align 8, !tbaa !9
  call void @llvm.lifetime.start.p0(i64 24, ptr %7) #3
  call void @_ZN2cv17_InputOutputArrayC2ERNS_3MatE(ptr noundef nonnull align 8 dereferenceable(24) %7, ptr noundef nonnull align 8 dereferenceable(96) %0)
  invoke void @_ZN2cv6Point_IiEC2Eii(ptr noundef nonnull align 4 dereferenceable(8) %8, i32 noundef 25, i32 noundef 50)
          to label %12 unwind label %16

12:                                               ; preds = %3
  invoke void @_ZN2cv7Scalar_IdEC2ERKS1_(ptr noundef nonnull align 8 dereferenceable(32) %11, ptr noundef nonnull align 8 dereferenceable(32) %2)
          to label %13 unwind label %16

13:                                               ; preds = %12
  %14 = load i64, ptr %8, align 4
  invoke void @_ZN2cv7putTextERKNS_17_InputOutputArrayERKNSt7__cxx1112basic_stringIcSt11char_traitsIcESaIcEEENS_6Point_IiEEidNS_7Scalar_IdEEiib(ptr noundef nonnull align 8 dereferenceable(24) %7, ptr noundef nonnull align 8 dereferenceable(32) %1, i64 %14, i32 noundef 16, double noundef 7.500000e-01, ptr noundef %11, i32 noundef 2, i32 noundef 8, i1 noundef zeroext false)
          to label %15 unwind label %16

15:                                               ; preds = %13
  call void @_ZN2cv11_InputArrayD2Ev(ptr noundef nonnull align 8 dereferenceable(24) %7) #3
  call void @llvm.lifetime.end.p0(i64 24, ptr %7) #3
  ret void

16:                                               ; preds = %13, %12, %3
  %17 = landingpad { ptr, i32 }
          cleanup
  %18 = extractvalue { ptr, i32 } %17, 0
  store ptr %18, ptr %9, align 8
  %19 = extractvalue { ptr, i32 } %17, 1
  store i32 %19, ptr %10, align 4
  call void @_ZN2cv11_InputArrayD2Ev(ptr noundef nonnull align 8 dereferenceable(24) %7) #3
  call void @llvm.lifetime.end.p0(i64 24, ptr %7) #3
  br label %20

20:                                               ; preds = %16
  %21 = load ptr, ptr %9, align 8
  %22 = load i32, ptr %10, align 4
  %23 = insertvalue { ptr, i32 } poison, ptr %21, 0
  %24 = insertvalue { ptr, i32 } %23, i32 %22, 1
  resume { ptr, i32 } %24
}